(lp0
VHarry Potter
p1
aS"RT @LawrencelyJen: Jennifer Lawrence's favorite book-to-movie adaption is Harry Potter."
p2
aS'#ReplaceWordInFilmWithPiese Harry potter and the Philosophers Pie'
p3
aS'Yo ngono wes tomcat ae kabeh... Sak bapak"mu yo tomcat jeneng e =D@biom__: Harry tomcat ( harry potter ) #judulFilmTomcat'
p4
aS'RT @_Snape_: On a scale of Twilight to Harry Potter, how good is The Hunger Games?'
p5
aS"Harry potter grand opening at weekend I know a boy who's very excited !!!"
p6
aS'@Ashley_Ashwee I got a big Harry Potter poster yesterday for $12'
p7
aS'Friend: on a scale of 1 to 10 how much do you like Harry Potter?\nMe: nine and three quarters'
p8
aS'Een goed begin is het halve werk. Loop erbij als Hagrid uit Harry Potter maar maakt niet uittt'
p9
aS'RT @feelmagic: #LibrosQueDebesLeerAntesDeMorir Harry Potter.'
p10
aS'http://t.co/FT84Ba9z'
p11
aS'En Lego Harry Potter 1-4 Voldemort es mas guapo.'
p12
aS"Can't decide whether to watch Harry Potter or Twilight, never thought I would have had this dilema36YEO"
p13
aS'Harry potter and the order of the phoenix'
p14
aS'RT @pottermore: The Pottermore Shop, the only place to buy the Harry Potter eBooks & digital audio books, is now open! http://t.co/NEAo7PUL #PottermoreShop'
p15
aS'@waheedaaziz ish ko ni..tu r dok termenung kt harry potter lg..dah x dgar'
p16
aS'RT @jasonhiner: Children everywhere (and plenty of adults) are rejoicing... Harry Potter books now available on Kindle http://t.co/cLCkVhBx'
p17
aS'Harry Potter :D RT @cumanNANYA: #cumanNANYA di kamar lo ada poster apa aja? (via:@kireync)'
p18
aS"Harry Potter Breaks E-Book Lockdown: ... New York) Tech Expert and the host of United Stations Radio Network's, ... http://t.co/SNYpkJ22"
p19
aS'Harry Potter and the Chamber of Pies #replacewordinfilmwithpies'
p20
aS'#Mytodolist paint Harry Potter & Hunger Games on a ginormous canvas.'
p21
aS'yeah i miss harry potter'
p22
aS'tjmaggiore we should go by the 8th Harry Potter, then, at 550 million in four days.  GameChangerr6cU'
p23
aS'@manutrebu Friki de Harry Potter xD'
p24
aS'Albus dumbledore,Christmas lights,Dumbledore,Harry potter,Lighting,Lights - inspiring picture on http://t.co/tVxJLeW4 http://t.co/GVLwyA3M'
p25
aS"Books: Harry Potter ebooks - will you buy them? - Poll: Ebook editions of JK Rowling's bestselling Harry Potter ... http://t.co/jWqWkTaW"
p26
aS'Harry tomcat ( harry potter ) #judulFilmTomcat'
p27
aS'RT @jutcherson: i thought harry potter was the #1 movie in the world what happened to that'
p28
aS'@Undertherain12  look this :) http://t.co/scwsA0Sw'
p29
aS'HUNGER GAMES! :) RT @TOP_Bigbanggg: HUNGER GAMES! RT @Retwittings: Pick One! Harry Potter or Hunger Games?'
p30
aS"I'm at Hogwarts Castle / Harry Potter and the Forbidden Journey (Orlando, FL) w/ 2 others http://t.co/OhiBrmdC"
p31
aS'http://t.co/5fpA3kwY  Harry Potter'
p32
aS'RT @TheHogwartians: My reaction when #TheySay (Muggles) "Harry Potter sucks." http://t.co/GdEl18sc'
p33
aS'@katleyyn Peeta...=))..mahal ko na siya ahahahahahah!! next to Harry Potter...=))'
p34
aS'#replacewordinafilmwithpie Harry potter an the chamber of pies'
p35
aS'Visiting The Home Of Harry Potter - IGN: http://t.co/XF1m74Y6 via @IGN'
p36
aS'RT @Yogurtbay: If the taste of the Blueberry and Oreo Cheesecake is like magic in a cup..So who would be Harry Potter and Artemis Fowl?'
p37
aS'harry potter and the philosophers pies #replacewordinfilmwithpies'
p38
aS'Harry potter worldd boundd....butterbeer http://t.co/XYAzn5z9'
p39
aS'Harry\nPotter ebooks poll! Will you buy them? Take\npart: http://t.co/DZzaMGY3 #teenbooks'
p40
aS"RT @HarryPotterings: #mostannoyingsaying 'Harry Potter is for kids'. J.K.Rowling has already stated, the main theme of Harry Potter is death."
p41
aS"RT @HarryPotterings: #mostannoyingsaying 'Harry Potter is for kids'. J.K.Rowling has already stated, the main theme of Harry Potter is death."
p42
aS'Kult-Zauberer - Harry Potter jetzt auch als E-Book http://t.co/8ocE4kiB'
p43
aS'RT @Bookliners: Harry Potter e la scuola di magia su eBook. In vendita in tutte le librerie online tranne Apple  http://t.co/DRe7Clbd via @sole24ore'
p44
aS'When in doubt, read a Harry Potter book. Trust me, it works.'
p45
aS'Alan Rickman is better in Die Hard than he is in any of the Harry Potter films.'
p46
aS"Harry potter gt RT @detikcom: 'Deathly Hallow II' Film Terbaik Empire Awards 2012 http://t.co/4UCVndom via @detikhot"
p47
aS'Jk Rowling New Book is "Very Different" From Harry Potter http://t.co/tyoVyooe'
p48
aS'RT @Hadia_Kopite: "I don\'t look for trouble,trouble usually finds me"--Harry Potter'
p49
aS'Harry potter worldd boundd....#butterbeer'
p50
aS'Harry Potter and the Chamber of Pies... Mmmm i wish. #replacewordinafilwithpies'
p51
aS'RT @salinas_inas: Viendo Harry Potter y el caliz de fuego; en honor a @Mariagr94 :)'
p52
aS'@WeQuoteBitch daniella haha harry potter lol and the scotch mm tastes like water'
p53
aS'Got the Harry Potter "From Page to Screen" book at the library. It\'s incredible. Needless to say notMUL'
p54
aS"RT @HarryPotterTM: Harry Potter isn't just a name. Hogwarts isn't just a place. 7 isn't just a number.  Always isn't just a word. J.K. isn't just an author."
p55
aS"@example what's your views on harry potter?"
p56
aS'Acin itu harry potter versi arab :P RT @acinmuhdor: Acin juga manusia kok :) RT 707renata: Tapi yg mengecewakan itu kan acin, bukan indah'
p57
aS'i thought harry potter was the #1 movie in the world what happened to that'
p58
aS"@jazz_stack I'd love to live in Hyrule, omfg. They should make a Zelda theme park. Like Harry Potter world. ZELDA'S BEEN AROUND LONGER!"
p59
aS"RT @HarryPotterings: #mostannoyingsaying 'Harry Potter is for kids'. J.K.Rowling has already stated, the main theme of Harry Potter is death."
p60
aS'Harry Potter ebooks now available through Pottermore website... http://t.co/RXCy2mZZ'
p61
aS"Stanley Tucci Bags Lead Opposite Emma Watson In 'Harry Potter' Director David Yates' Drama 'Your Voice In My Head' http://t.co/QCTSzgQD"
p62
aS'Aku sih suka yg classic war kaya TLOTR RT @AyaFandya: Kalo nntn sjenis harry potter ak sng haha RT @Daniel_Manurung:'
p63
aS"Harry Potter e-books available at J.K. Rowling's Pottermore store - http://t.co/ztHjxs9x (via @sociablesite)"
p64
aS'#replacewordinfilmwithpies harry potter and the goblet of pies'
p65
aS'feel like watching harry potter #again'
p66
aS'jaaaaa mijn moeder leest eindelijk Harry Potter :D'
p67
aS'RT @KalebNation: Rue is BLACK?? Harry Potter is a WIZARD?! Why @AmandlaStenberg was the perfect Rue: http://t.co/D81YNpIR'
p68
aS'Got a weird scar on my face, its horrible. Like Harry Potter on my cheek!'
p69
aS'#replacewordinfilmwithpies harry potter and the chamber of pies.'
p70
aS'nonton ulang harry potter 7 semakin terasalah betapa dark-nya film ini.'
p71
aS'Harry Potter http://t.co/zq70QuFw'
p72
aS'#mostannoyingsaying "harry potter the boy who lived" \nLord Voldemort- "..... -_-" http://t.co/DhcwcCmA'
p73
aS'There is more making out in like ten pages of The Hunger Games than in the entire Harry Potter serieYBqYy'
p74
aS"RT @thecinemafan: 'Harry Potter' Actor gets 2 Years In Jail For Participation In Riots http://t.co/Jz8SVK0W via @fox411 #CinemaFanNews #TFB #Potterheads #F4F"
p75
aS'Fattening myself up with McDonalds while watching Harry Potter & The Order of Phoenix. #purebliss'
p76
aS'"@Hadia_Kopite: "I don\'t look for trouble,trouble usually finds me"--Harry Potter" put HP out of there and put my name cuz that\'s me :P'
p77
aS'http://t.co/VxNG1Op3 george washington carver\nhttp://t.co/I16C2egp harry potter 3'
p78
aS'Harry Potter breaks e-book lockdown: FILE -- In this Friday, July 15, 2005 file photo shows British author JK Ro... http://t.co/AaDqVj2r'
p79
aS'I start reading Harry Potter at 9:00 and go to bed afterwards, so tweeting at me past then is not going to get you anywhere'
p80
aS'http://t.co/2BQVeSPT somerset county council\nhttp://t.co/1WAR5qWS harry potter wands'
p81
aS'harry potter, hermione granger, ron weasley, rupert grint - inspiring picture on http://t.co/dhnW7tpQ http://t.co/QOomgST6'
p82
aS'cool, gray and white, harry potter, hoodie - inspiring picture on http://t.co/dhnW7tpQ http://t.co/KcOO0Ye7'
p83
aS'En route to harry potter world'
p84
aS'RT @neiliyah: #replacewordinfilmwithpies Harry Potter and the Deathly Pies.'
p85
a.